; Function Attrs: mustprogress nounwind uwtable
define noundef ptr @_ZNK3gmx8internal17OptionSectionImpl11findSectionEPKc(ptr noundef nonnull readonly align 8 captures(none) dereferenceable(201) %0, ptr noundef %1) local_unnamed_addr #1 align 2 {
  %3 = getelementptr inbounds nuw i8, ptr %0, i64 176
  %4 = load ptr, ptr %3, align 8, !tbaa !57
  %5 = getelementptr inbounds nuw i8, ptr %0, i64 184
  %6 = load ptr, ptr %5, align 8, !tbaa !57
  %.not15 = icmp eq ptr %4, %6
  br i1 %.not15, label %.loopexit, label %.lr.ph

.lr.ph:                                           ; preds = %2, %12
  %.sroa.010.016 = phi ptr [ %13, %12 ], [ %4, %2 ]
  %7 = load ptr, ptr %.sroa.010.016, align 8, !tbaa !19
  %8 = getelementptr inbounds nuw i8, ptr %7, i64 32
  %9 = tail call noundef i32 @_ZNKSt7__cxx1112basic_stringIcSt11char_traitsIcESaIcEE7compareEPKc(ptr noundef nonnull align 8 dereferenceable(32) %8, ptr noundef %1) #26
  %10 = icmp eq i32 %9, 0
  br i1 %10, label %.thread, label %12

.thread:                                          ; preds = %.lr.ph
  %11 = load ptr, ptr %.sroa.010.016, align 8, !tbaa !19
  br label %.loopexit

12:                                               ; preds = %.lr.ph
  %13 = getelementptr inbounds nuw i8, ptr %.sroa.010.016, i64 8
  %.not = icmp eq ptr %13, %6
  br i1 %.not, label %.loopexit, label %.lr.ph

.loopexit:                                        ; preds = %12, %2, %.thread
  %spec.select = phi ptr [ %11, %.thread ], [ null, %2 ], [ null, %12 ]
  ret ptr %spec.select
}